#include <math.h>
#include <stdio.h>
#include <stdlib.h>
#include <string.h>

int main()
{
	int n,a,i,j;
	char dc[52];
	scanf("%d",&n);
	for(i=0;i<n;i++){
		scanf("%s",dc);
		a=strlen(dc);
		if(dc[a-1]=='r'||dc[a-1]=='y'){
			for(j=0;j<a-2;j++){
				if(j<a-3)
					printf("%c",dc[j]);
				else
					printf("%c\n",dc[j]);				
			}
		}
		else if(dc[a-1]=='g'){
			for(j=0;j<a-3;j++){
				if(j<a-4)
					printf("%c",dc[j]);
				else
					printf("%c\n",dc[j]);
			}
		}					
	}
	return 0;
}
